target datalayout = "e-m:e-p270:32:32-p271:32:32-p272:64:64-i64:64-i128:128-f80:128-n8:16:32:64-S128"
target triple = "x86_64-unknown-linux-gnu"

%"struct.OpenColorIO_v2_4dev::CDLOpData::ChannelParams" = type { [3 x double] }
%"class.std::__cxx11::basic_string" = type { %"struct.std::__cxx11::basic_string<char>::_Alloc_hider", i64, %union.anon.0 }
%"struct.std::__cxx11::basic_string<char>::_Alloc_hider" = type { ptr }
%union.anon.0 = type { i64, [8 x i8] }
%"class.OpenColorIO_v2_4dev::CDLOpData" = type { %"class.OpenColorIO_v2_4dev::OpData", i32, %"struct.OpenColorIO_v2_4dev::CDLOpData::ChannelParams", %"struct.OpenColorIO_v2_4dev::CDLOpData::ChannelParams", %"struct.OpenColorIO_v2_4dev::CDLOpData::ChannelParams", double }
%"class.OpenColorIO_v2_4dev::OpData" = type { ptr, %"class.std::mutex", %"class.OpenColorIO_v2_4dev::FormatMetadataImpl" }
%"class.std::mutex" = type { %"class.std::__mutex_base" }
%"class.std::__mutex_base" = type { %union.pthread_mutex_t }
%union.pthread_mutex_t = type { %struct.__pthread_mutex_s }
%struct.__pthread_mutex_s = type { i32, i32, i32, i32, i32, i16, i16, %struct.__pthread_internal_list }
%struct.__pthread_internal_list = type { ptr, ptr }
%"class.OpenColorIO_v2_4dev::FormatMetadataImpl" = type { %"class.OpenColorIO_v2_4dev::FormatMetadata", %"class.std::__cxx11::basic_string", %"class.std::__cxx11::basic_string", %"class.std::vector", %"class.std::vector.4" }
%"class.OpenColorIO_v2_4dev::FormatMetadata" = type { ptr }
%"class.std::vector" = type { %"struct.std::_Vector_base" }
%"struct.std::_Vector_base" = type { %"struct.std::_Vector_base<std::pair<std::__cxx11::basic_string<char>, std::__cxx11::basic_string<char>>, std::allocator<std::pair<std::__cxx11::basic_string<char>, std::__cxx11::basic_string<char>>>>::_Vector_impl" }
%"struct.std::_Vector_base<std::pair<std::__cxx11::basic_string<char>, std::__cxx11::basic_string<char>>, std::allocator<std::pair<std::__cxx11::basic_string<char>, std::__cxx11::basic_string<char>>>>::_Vector_impl" = type { %"struct.std::_Vector_base<std::pair<std::__cxx11::basic_string<char>, std::__cxx11::basic_string<char>>, std::allocator<std::pair<std::__cxx11::basic_string<char>, std::__cxx11::basic_string<char>>>>::_Vector_impl_data" }
%"struct.std::_Vector_base<std::pair<std::__cxx11::basic_string<char>, std::__cxx11::basic_string<char>>, std::allocator<std::pair<std::__cxx11::basic_string<char>, std::__cxx11::basic_string<char>>>>::_Vector_impl_data" = type { ptr, ptr, ptr }
%"class.std::vector.4" = type { %"struct.std::_Vector_base.5" }
%"struct.std::_Vector_base.5" = type { %"struct.std::_Vector_base<OpenColorIO_v2_4dev::FormatMetadataImpl, std::allocator<OpenColorIO_v2_4dev::FormatMetadataImpl>>::_Vector_impl" }
%"struct.std::_Vector_base<OpenColorIO_v2_4dev::FormatMetadataImpl, std::allocator<OpenColorIO_v2_4dev::FormatMetadataImpl>>::_Vector_impl" = type { %"struct.std::_Vector_base<OpenColorIO_v2_4dev::FormatMetadataImpl, std::allocator<OpenColorIO_v2_4dev::FormatMetadataImpl>>::_Vector_impl_data" }
%"struct.std::_Vector_base<OpenColorIO_v2_4dev::FormatMetadataImpl, std::allocator<OpenColorIO_v2_4dev::FormatMetadataImpl>>::_Vector_impl_data" = type { ptr, ptr, ptr }

; Function Attrs: mustprogress nounwind uwtable
define hidden void @_ZN19OpenColorIO_v2_4dev9CDLOpData8setStyleENS0_5StyleE(ptr noundef nonnull align 8 dereferenceable(256) %this, i32 noundef %style) #5 align 2 {
entry:
  %this.addr = alloca ptr, align 8
  %style.addr = alloca i32, align 4
  store ptr %this, ptr %this.addr, align 8
  store i32 %style, ptr %style.addr, align 4
  %this1 = load ptr, ptr %this.addr, align 8
  %0 = load i32, ptr %style.addr, align 4
  %m_style = getelementptr inbounds %"class.OpenColorIO_v2_4dev::CDLOpData", ptr %this1, i32 0, i32 1
  store i32 %0, ptr %m_style, align 8
  ret void
}

; Function Attrs: mustprogress nounwind uwtable
define hidden void @_ZN19OpenColorIO_v2_4dev9CDLOpData6invertEv(ptr noundef nonnull align 8 dereferenceable(256) %this) #5 align 2 {
entry:
  %this.addr = alloca ptr, align 8
  store ptr %this, ptr %this.addr, align 8
  %this1 = load ptr, ptr %this.addr, align 8
  %m_style = getelementptr inbounds %"class.OpenColorIO_v2_4dev::CDLOpData", ptr %this1, i32 0, i32 1
  %0 = load i32, ptr %m_style, align 8
  switch i32 %0, label %sw.epilog [
    i32 0, label %sw.bb
    i32 1, label %sw.bb2
    i32 2, label %sw.bb3
    i32 3, label %sw.bb4
  ]

sw.bb:                                            ; preds = %entry
  call void @_ZN19OpenColorIO_v2_4dev9CDLOpData8setStyleENS0_5StyleE(ptr noundef nonnull align 8 dereferenceable(256) %this1, i32 noundef 1)
  br label %sw.epilog

sw.bb2:                                           ; preds = %entry
  call void @_ZN19OpenColorIO_v2_4dev9CDLOpData8setStyleENS0_5StyleE(ptr noundef nonnull align 8 dereferenceable(256) %this1, i32 noundef 0)
  br label %sw.epilog

sw.bb3:                                           ; preds = %entry
  call void @_ZN19OpenColorIO_v2_4dev9CDLOpData8setStyleENS0_5StyleE(ptr noundef nonnull align 8 dereferenceable(256) %this1, i32 noundef 3)
  br label %sw.epilog

sw.bb4:                                           ; preds = %entry
  call void @_ZN19OpenColorIO_v2_4dev9CDLOpData8setStyleENS0_5StyleE(ptr noundef nonnull align 8 dereferenceable(256) %this1, i32 noundef 2)
  br label %sw.epilog

sw.epilog:                                        ; preds = %sw.bb4, %sw.bb3, %sw.bb2, %sw.bb, %entry
  ret void
}

; Function Attrs: mustprogress nounwind uwtable
define hidden noundef i32 @_ZNK19OpenColorIO_v2_4dev9CDLOpData12getDirectionEv(ptr noundef nonnull align 8 dereferenceable(256) %this) #5 align 2 {
entry:
  %retval = alloca i32, align 4
  %this.addr = alloca ptr, align 8
  store ptr %this, ptr %this.addr, align 8
  %this1 = load ptr, ptr %this.addr, align 8
  %m_style = getelementptr inbounds %"class.OpenColorIO_v2_4dev::CDLOpData", ptr %this1, i32 0, i32 1
  %0 = load i32, ptr %m_style, align 8
  switch i32 %0, label %sw.epilog [
    i32 0, label %sw.bb
    i32 2, label %sw.bb
    i32 1, label %sw.bb2
    i32 3, label %sw.bb2
  ]

sw.bb:                                            ; preds = %entry, %entry
  store i32 0, ptr %retval, align 4
  br label %return

sw.bb2:                                           ; preds = %entry, %entry
  store i32 1, ptr %retval, align 4
  br label %return

sw.epilog:                                        ; preds = %entry
  store i32 0, ptr %retval, align 4
  br label %return

return:                                           ; preds = %sw.epilog, %sw.bb2, %sw.bb
  %1 = load i32, ptr %retval, align 4
  ret i32 %1
}

; Function Attrs: mustprogress nounwind uwtable
define hidden void @_ZN19OpenColorIO_v2_4dev9CDLOpData12setDirectionENS_18TransformDirectionE(ptr noundef nonnull align 8 dereferenceable(256) %this, i32 noundef %dir) #5 align 2 {
entry:
  %this.addr = alloca ptr, align 8
  %dir.addr = alloca i32, align 4
  store ptr %this, ptr %this.addr, align 8
  store i32 %dir, ptr %dir.addr, align 4
  %this1 = load ptr, ptr %this.addr, align 8
  %call = call noundef i32 @_ZNK19OpenColorIO_v2_4dev9CDLOpData12getDirectionEv(ptr noundef nonnull align 8 dereferenceable(256) %this1) #3
  %0 = load i32, ptr %dir.addr, align 4
  %cmp = icmp ne i32 %call, %0
  br i1 %cmp, label %if.then, label %if.end

if.then:                                          ; preds = %entry
  call void @_ZN19OpenColorIO_v2_4dev9CDLOpData6invertEv(ptr noundef nonnull align 8 dereferenceable(256) %this1) #3
  br label %if.end

if.end:                                           ; preds = %if.then, %entry
  ret void
}