; Function Attrs: mustprogress nofree norecurse nosync nounwind willreturn memory(argmem: readwrite) uwtable
define hidden void @_ZN19OpenColorIO_v2_4dev9CDLOpData12setDirectionENS_18TransformDirectionE(ptr nocapture noundef nonnull align 8 dereferenceable(256) %this, i32 noundef %dir) local_unnamed_addr #9 align 2 {
entry:
  %m_style.i = getelementptr inbounds i8, ptr %this, i64 168
  %0 = load i32, ptr %m_style.i, align 8
  %1 = add i32 %0, -1
  %switch.and.i = and i32 %1, -3
  %switch.selectcmp.i = icmp eq i32 %switch.and.i, 0
  %2 = zext i1 %switch.selectcmp.i to i32
  %cmp.not = icmp ne i32 %2, %dir
  %3 = icmp ult i32 %0, 4
  %or.cond = and i1 %cmp.not, %3
  br i1 %or.cond, label %switch.lookup, label %if.end

switch.lookup:                                    ; preds = %entry
  %4 = zext nneg i32 %0 to i64
  %switch.gep = getelementptr inbounds [4 x i32], ptr @switch.table._ZNK19OpenColorIO_v2_4dev9CDLOpData7inverseEv, i64 0, i64 %4
  %switch.load = load i32, ptr %switch.gep, align 4
  store i32 %switch.load, ptr %m_style.i, align 8
  br label %if.end

if.end:                                           ; preds = %switch.lookup, %entry
  ret void
}